; Function Attrs: mustprogress nounwind uwtable
define hidden noalias noundef ptr @_ZN25NMTPreInitAllocationTablenwEm(i64 noundef %0) local_unnamed_addr #0 align 2 {
  %2 = tail call noalias noundef ptr @malloc(i64 noundef %0) #11
  %3 = icmp eq ptr %2, null
  br i1 %3, label %4, label %_ZL18raw_checked_mallocm.exit

4:                                                ; preds = %1
  tail call void (ptr, i32, i64, i32, ptr, ...) @_Z23report_vm_out_of_memoryPKcim11VMErrorTypeS0_z(ptr noundef nonnull @.str.5, i32 noundef 47, i64 noundef %0, i32 noundef -536870911, ptr noundef nonnull @.str.6) #12
  unreachable

_ZL18raw_checked_mallocm.exit:                    ; preds = %1
  ret ptr %2
}